target datalayout = "e-m:e-p270:32:32-p271:32:32-p272:64:64-i64:64-i128:128-f80:128-n8:16:32:64-S128"
target triple = "x86_64-pc-linux-gnu"

%struct.GL_ShaderContext = type { ptr, ptr, ptr, ptr, ptr, ptr, ptr, ptr, ptr, ptr, ptr, ptr, ptr, ptr, ptr, ptr, i8, [11 x %struct.GL_ShaderData], [11 x ptr] }
%struct.GL_ShaderData = type { i32, i32, i32 }

@.str.45 = private unnamed_addr constant [26 x i8] c"Failed to compile shader:\00", align 1
@.str.46 = private unnamed_addr constant [3 x i8] c"%s\00", align 1

; Function Attrs: nounwind uwtable
define internal zeroext i1 @CompileShader(ptr noundef %0, i32 noundef %1, ptr noundef %2, ptr noundef %3, ptr noundef %4) #0 {
  %6 = alloca i1, align 1
  %7 = alloca ptr, align 8
  %8 = alloca i32, align 4
  %9 = alloca ptr, align 8
  %10 = alloca ptr, align 8
  %11 = alloca ptr, align 8
  %12 = alloca i32, align 4
  %13 = alloca [3 x ptr], align 16
  %14 = alloca i8, align 1
  %15 = alloca i32, align 4
  %16 = alloca ptr, align 8
  %17 = alloca i32, align 4
  store ptr %0, ptr %7, align 8
  store i32 %1, ptr %8, align 4
  store ptr %2, ptr %9, align 8
  store ptr %3, ptr %10, align 8
  store ptr %4, ptr %11, align 8
  call void @llvm.lifetime.start.p0(i64 4, ptr %12) #4
  call void @llvm.lifetime.start.p0(i64 24, ptr %13) #4
  %18 = load ptr, ptr %9, align 8
  %19 = getelementptr inbounds [3 x ptr], ptr %13, i64 0, i64 0
  store ptr %18, ptr %19, align 16
  %20 = load ptr, ptr %10, align 8
  %21 = getelementptr inbounds [3 x ptr], ptr %13, i64 0, i64 1
  store ptr %20, ptr %21, align 8
  %22 = load ptr, ptr %11, align 8
  %23 = getelementptr inbounds [3 x ptr], ptr %13, i64 0, i64 2
  store ptr %22, ptr %23, align 16
  %24 = load ptr, ptr %7, align 8
  %25 = getelementptr inbounds nuw %struct.GL_ShaderContext, ptr %24, i32 0, i32 10
  %26 = load ptr, ptr %25, align 8
  %27 = load i32, ptr %8, align 4
  %28 = getelementptr inbounds [3 x ptr], ptr %13, i64 0, i64 0
  call void %26(i32 noundef %27, i32 noundef 3, ptr noundef %28, ptr noundef null)
  %29 = load ptr, ptr %7, align 8
  %30 = getelementptr inbounds nuw %struct.GL_ShaderContext, ptr %29, i32 0, i32 2
  %31 = load ptr, ptr %30, align 8
  %32 = load i32, ptr %8, align 4
  call void %31(i32 noundef %32)
  %33 = load ptr, ptr %7, align 8
  %34 = getelementptr inbounds nuw %struct.GL_ShaderContext, ptr %33, i32 0, i32 7
  %35 = load ptr, ptr %34, align 8
  %36 = load i32, ptr %8, align 4
  call void %35(i32 noundef %36, i32 noundef 35713, ptr noundef %12)
  %37 = load i32, ptr %12, align 4
  %38 = icmp eq i32 %37, 0
  br i1 %38, label %39, label %85

39:                                               ; preds = %5
  call void @llvm.lifetime.start.p0(i64 1, ptr %14) #4
  call void @llvm.lifetime.start.p0(i64 4, ptr %15) #4
  call void @llvm.lifetime.start.p0(i64 8, ptr %16) #4
  %40 = load ptr, ptr %7, align 8
  %41 = getelementptr inbounds nuw %struct.GL_ShaderContext, ptr %40, i32 0, i32 7
  %42 = load ptr, ptr %41, align 8
  %43 = load i32, ptr %8, align 4
  call void %42(i32 noundef %43, i32 noundef 35716, ptr noundef %15)
  %44 = load i32, ptr %15, align 4
  %45 = add nsw i32 %44, 1
  %46 = sext i32 %45 to i64
  %47 = mul i64 1, %46
  %48 = icmp ult i64 %47, 128
  %49 = zext i1 %48 to i8
  store i8 %49, ptr %14, align 1
  %50 = load i8, ptr %14, align 1, !range !3, !noundef !4
  %51 = trunc i8 %50 to i1
  br i1 %51, label %52, label %58

52:                                               ; preds = %39
  %53 = load i32, ptr %15, align 4
  %54 = add nsw i32 %53, 1
  %55 = sext i32 %54 to i64
  %56 = mul i64 1, %55
  %57 = alloca i8, i64 %56, align 16
  br label %64

58:                                               ; preds = %39
  %59 = load i32, ptr %15, align 4
  %60 = add nsw i32 %59, 1
  %61 = sext i32 %60 to i64
  %62 = mul i64 1, %61
  %63 = call noalias ptr @SDL_malloc_REAL(i64 noundef %62)
  br label %64

64:                                               ; preds = %58, %52
  %65 = phi ptr [ %57, %52 ], [ %63, %58 ]
  store ptr %65, ptr %16, align 8
  %66 = load ptr, ptr %16, align 8
  %67 = icmp ne ptr %66, null
  br i1 %67, label %68, label %84

68:                                               ; preds = %64
  %69 = load ptr, ptr %7, align 8
  %70 = getelementptr inbounds nuw %struct.GL_ShaderContext, ptr %69, i32 0, i32 6
  %71 = load ptr, ptr %70, align 8
  %72 = load i32, ptr %8, align 4
  %73 = load i32, ptr %15, align 4
  %74 = load ptr, ptr %16, align 8
  call void %71(i32 noundef %72, i32 noundef %73, ptr noundef null, ptr noundef %74)
  call void (i32, ptr, ...) @SDL_LogError_REAL(i32 noundef 6, ptr noundef @.str.45)
  %75 = load ptr, ptr %10, align 8
  call void (i32, ptr, ...) @SDL_LogError_REAL(i32 noundef 6, ptr noundef @.str.46, ptr noundef %75)
  %76 = load ptr, ptr %11, align 8
  call void (i32, ptr, ...) @SDL_LogError_REAL(i32 noundef 6, ptr noundef @.str.46, ptr noundef %76)
  %77 = load ptr, ptr %16, align 8
  call void (i32, ptr, ...) @SDL_LogError_REAL(i32 noundef 6, ptr noundef @.str.46, ptr noundef %77)
  %78 = load i8, ptr %14, align 1, !range !3, !noundef !4
  %79 = trunc i8 %78 to i1
  br i1 %79, label %80, label %81

80:                                               ; preds = %68
  br label %83

81:                                               ; preds = %68
  %82 = load ptr, ptr %16, align 8
  call void @SDL_free_REAL(ptr noundef %82)
  br label %83

83:                                               ; preds = %81, %80
  br label %84

84:                                               ; preds = %83, %64
  store i1 false, ptr %6, align 1
  store i32 1, ptr %17, align 4
  call void @llvm.lifetime.end.p0(i64 8, ptr %16) #4
  call void @llvm.lifetime.end.p0(i64 4, ptr %15) #4
  call void @llvm.lifetime.end.p0(i64 1, ptr %14) #4
  br label %86

85:                                               ; preds = %5
  store i1 true, ptr %6, align 1
  store i32 1, ptr %17, align 4
  br label %86

86:                                               ; preds = %85, %84
  call void @llvm.lifetime.end.p0(i64 24, ptr %13) #4
  call void @llvm.lifetime.end.p0(i64 4, ptr %12) #4
  %87 = load i1, ptr %6, align 1
  ret i1 %87
}