; Function Attrs: nounwind uwtable
define internal fastcc noundef zeroext i1 @CompileShader(ptr noundef nonnull readonly captures(none) %0, i32 noundef %1, ptr noundef %2, ptr noundef %3, ptr noundef %4) unnamed_addr #0 {
  %6 = alloca i32, align 4
  %7 = alloca [3 x ptr], align 16
  %8 = alloca i32, align 4
  call void @llvm.lifetime.start.p0(i64 4, ptr nonnull %6) #5
  call void @llvm.lifetime.start.p0(i64 24, ptr nonnull %7) #5
  store ptr %2, ptr %7, align 16
  %9 = getelementptr inbounds nuw i8, ptr %7, i64 8
  store ptr %3, ptr %9, align 8
  %10 = getelementptr inbounds nuw i8, ptr %7, i64 16
  store ptr %4, ptr %10, align 16
  %11 = getelementptr inbounds nuw i8, ptr %0, i64 80
  %12 = load ptr, ptr %11, align 8
  call void %12(i32 noundef %1, i32 noundef 3, ptr noundef nonnull %7, ptr noundef null) #5
  %13 = getelementptr inbounds nuw i8, ptr %0, i64 16
  %14 = load ptr, ptr %13, align 8
  call void %14(i32 noundef %1) #5
  %15 = getelementptr inbounds nuw i8, ptr %0, i64 56
  %16 = load ptr, ptr %15, align 8
  call void %16(i32 noundef %1, i32 noundef 35713, ptr noundef nonnull %6) #5
  %17 = load i32, ptr %6, align 4
  %18 = icmp ne i32 %17, 0
  br i1 %18, label %35, label %19

19:                                               ; preds = %5
  call void @llvm.lifetime.start.p0(i64 4, ptr nonnull %8) #5
  %20 = load ptr, ptr %15, align 8
  call void %20(i32 noundef %1, i32 noundef 35716, ptr noundef nonnull %8) #5
  %21 = load i32, ptr %8, align 4
  %22 = add nsw i32 %21, 1
  %23 = sext i32 %22 to i64
  %24 = icmp ult i32 %22, 128
  br i1 %24, label %.thread, label %26

.thread:                                          ; preds = %19
  %25 = alloca i8, i64 %23, align 16
  br label %28

26:                                               ; preds = %19
  %27 = call noalias ptr @SDL_malloc_REAL(i64 noundef %23) #5
  %.not = icmp eq ptr %27, null
  br i1 %.not, label %34, label %._crit_edge

._crit_edge:                                      ; preds = %26
  %.pre = load i32, ptr %8, align 4
  br label %28

28:                                               ; preds = %._crit_edge, %.thread
  %29 = phi i32 [ %21, %.thread ], [ %.pre, %._crit_edge ]
  %30 = phi ptr [ %25, %.thread ], [ %27, %._crit_edge ]
  %31 = getelementptr inbounds nuw i8, ptr %0, i64 48
  %32 = load ptr, ptr %31, align 8
  call void %32(i32 noundef %1, i32 noundef %29, ptr noundef null, ptr noundef nonnull %30) #5
  call void (i32, ptr, ...) @SDL_LogError_REAL(i32 noundef 6, ptr noundef nonnull @.str.45) #5
  call void (i32, ptr, ...) @SDL_LogError_REAL(i32 noundef 6, ptr noundef nonnull @.str.46, ptr noundef %3) #5
  call void (i32, ptr, ...) @SDL_LogError_REAL(i32 noundef 6, ptr noundef nonnull @.str.46, ptr noundef %4) #5
  call void (i32, ptr, ...) @SDL_LogError_REAL(i32 noundef 6, ptr noundef nonnull @.str.46, ptr noundef nonnull %30) #5
  br i1 %24, label %34, label %33

33:                                               ; preds = %28
  call void @SDL_free_REAL(ptr noundef nonnull %30) #5
  br label %34

34:                                               ; preds = %33, %28, %26
  call void @llvm.lifetime.end.p0(i64 4, ptr nonnull %8) #5
  br label %35

35:                                               ; preds = %5, %34
  call void @llvm.lifetime.end.p0(i64 24, ptr nonnull %7) #5
  call void @llvm.lifetime.end.p0(i64 4, ptr nonnull %6) #5
  ret i1 %18
}